target datalayout = "e-m:e-p270:32:32-p271:32:32-p272:64:64-i64:64-i128:128-f80:128-n8:16:32:64-S128"
target triple = "x86_64-pc-linux-gnu"

%struct.reassembly_table = type { ptr, ptr, ptr, ptr, ptr }
%struct.reassembly_table_functions = type { ptr, ptr, ptr, ptr, ptr, ptr }

@proto_ncp = external global i32, align 4
@nds_reassembly_table = internal global %struct.reassembly_table zeroinitializer, align 8
@addresses_reassembly_table_functions = external constant %struct.reassembly_table_functions, align 8
@ncp_req_hash = internal global ptr null, align 8
@ncp_req_eid_hash = internal global ptr null, align 8

; Function Attrs: null_pointer_is_valid sspstrong uwtable
define hidden void @proto_register_ncp2222() #0 {
  %1 = alloca ptr, align 8
  call void @llvm.lifetime.start.p0(i64 8, ptr %1) #13
  %2 = load i32, ptr @proto_ncp, align 4
  call void @proto_register_field_array(i32 noundef %2, ptr noundef @proto_register_ncp2222.hf, i32 noundef 2370)
  call void @proto_register_subtree_array(ptr noundef @proto_register_ncp2222.ett, i32 noundef 138)
  %3 = load i32, ptr @proto_ncp, align 4
  %4 = call ptr @expert_register_protocol(i32 noundef %3)
  store ptr %4, ptr %1, align 8
  %5 = load ptr, ptr %1, align 8
  call void @expert_register_field_array(ptr noundef %5, ptr noundef @proto_register_ncp2222.ei, i32 noundef 19)
  call void @register_init_routine(ptr noundef @ncp_init_protocol)
  call void @reassembly_table_register(ptr noundef @nds_reassembly_table, ptr noundef @addresses_reassembly_table_functions)
  %6 = call ptr @wmem_epan_scope()
  %7 = call ptr @wmem_file_scope()
  %8 = call noalias ptr @wmem_map_new_autoreset(ptr noundef %6, ptr noundef %7, ptr noundef @ncp_hash, ptr noundef @ncp_equal)
  store ptr %8, ptr @ncp_req_hash, align 8
  %9 = call ptr @wmem_epan_scope()
  %10 = call ptr @wmem_file_scope()
  %11 = call noalias ptr @wmem_map_new_autoreset(ptr noundef %9, ptr noundef %10, ptr noundef @ncp_eid_hash, ptr noundef @ncp_eid_equal)
  store ptr %11, ptr @ncp_req_eid_hash, align 8
  call void @llvm.lifetime.end.p0(i64 8, ptr %1) #13
  ret void
}