; Function Attrs: null_pointer_is_valid sspstrong uwtable
define hidden void @proto_register_ncp2222() local_unnamed_addr #0 {
  %1 = load i32, ptr @proto_ncp, align 4
  tail call void @proto_register_field_array(i32 noundef %1, ptr noundef nonnull @proto_register_ncp2222.hf, i32 noundef 2370)
  tail call void @proto_register_subtree_array(ptr noundef nonnull @proto_register_ncp2222.ett, i32 noundef 138)
  %2 = load i32, ptr @proto_ncp, align 4
  %3 = tail call ptr @expert_register_protocol(i32 noundef %2)
  tail call void @expert_register_field_array(ptr noundef %3, ptr noundef nonnull @proto_register_ncp2222.ei, i32 noundef 19)
  tail call void @register_init_routine(ptr noundef nonnull @ncp_init_protocol)
  tail call void @reassembly_table_register(ptr noundef nonnull @nds_reassembly_table, ptr noundef nonnull @addresses_reassembly_table_functions)
  %4 = tail call ptr @wmem_epan_scope()
  %5 = tail call ptr @wmem_file_scope()
  %6 = tail call noalias ptr @wmem_map_new_autoreset(ptr noundef %4, ptr noundef %5, ptr noundef nonnull @ncp_hash, ptr noundef nonnull @ncp_equal)
  store ptr %6, ptr @ncp_req_hash, align 8
  %7 = tail call ptr @wmem_epan_scope()
  %8 = tail call ptr @wmem_file_scope()
  %9 = tail call noalias ptr @wmem_map_new_autoreset(ptr noundef %7, ptr noundef %8, ptr noundef nonnull @ncp_eid_hash, ptr noundef nonnull @ncp_eid_equal)
  store ptr %9, ptr @ncp_req_eid_hash, align 8
  ret void
}